(dp0
cnumpy.core.multiarray
scalar
p1
(cnumpy
dtype
p2
(S'u1'
p3
I0
I1
tp4
Rp5
(I3
S'|'
p6
NNNI-1
I-1
I0
tp7
bS'\x00'
p8
tp9
Rp10
(lp11
I0
aI57
aI88
aI104
aI139
aI152
aI172
aI182
aI218
aI243
aI265
aI285
aI299
aI325
aI360
aI364
aI381
aI396
aI430
aI442
aI482
aI509
aI517
aI529
aI578
aI608
aI626
aI643
aI682
aI696
aI714
aI766
aI818
aI833
aI845
aI867
aI880
aI900
aI913
aI922
aI929
aI938
aI953
aI964
aI984
aI1007
aI1019
aI1029
aI1044
aI1050
aI1072
aI1099
aI1141
aI1173
aI1196
aI1240
aI1259
aI1286
aI1360
aI1362
aI1387
aI1407
aI1429
aI1442
aI1447
aI1467
aI1492
aI1503
aI1525
aI1532
aI1558
aI1572
aI1598
aI1613
aI1630
aI1642
aI1662
aI1699
aI1728
aI1736
aI1749
aI1761
aI1781
aI1802
aI1808
aI1828
aI1859
aI1898
aI1917
aI1945
aI1967
aI1975
aI1997
aI2002
aI2029
aI2037
aI2045
aI2069
aI2104
aI2116
aI2132
aI2146
aI2164
aI2177
aI2192
aI2197
aI2220
aI2266
aI2293
aI2348
aI2358
aI2378
aI2412
aI2433
aI2449
aI2462
aI2468
aI2479
aI2523
aI2558
aI2575
aI2610
aI2638
aI2652
aI2687
aI2708
aI2719
aI2747
aI2760
aI2770
aI2820
aI2849
aI2874
aI2891
aI2899
aI2916
aI2938
aI2960
aI2998
aI3015
aI3029
aI3045
aI3068
aI3078
aI3100
aI3129
aI3131
aI3157
aI3183
aI3205
aI3223
aI3243
aI3247
aI3262
aI3294
aI3299
aI3310
aI3328
aI3355
aI3373
aI3380
aI3428
aI3440
aI3463
aI3474
aI3485
aI3521
aI3540
aI3580
aI3596
aI3616
aI3652
aI3662
aI3674
aI3708
aI3722
aI3740
aI3754
aI3769
aI3798
aI3809
aI3818
aI3837
aI3856
aI3867
aI3891
aI3911
aI3927
aI3964
aI3985
aI3997
aI4035
aI4051
aI4074
aI4098
aI4112
aI4153
aI4157
aI4191
aI4218
aI4240
aI4264
aI4285
aI4299
aI4312
aI4327
aI4347
aI4357
aI4362
aI4380
aI4408
aI4415
aI4424
aI4434
aI4447
aI4462
aI4485
aI4501
aI4509
aI4527
aI4555
aI4588
aI4604
aI4613
aI4636
aI4647
aI4668
aI4697
aI4724
aI4742
aI4747
aI4770
aI4780
aI4815
aI4832
aI4849
aI4868
aI4887
aI4907
aI4931
aI4938
aI4960
aI4979
aI4995
aI5008
aI5026
aI5047
aI5050
aI5102
aI5126
aI5136
aI5167
aI5193
aI5224
aI5253
aI5271
aI5297
aI5309
aI5325
aI5335
aI5372
aI5396
aI5419
aI5430
aI5444
aI5461
aI5498
aI5509
aI5517
aI5549
aI5574
aI5610
aI5629
aI5636
aI5647
aI5666
aI5707
aI5717
aI5743
aI5746
aI5776
aI5796
aI5825
aI5868
aI5883
aI5899
aI5918
aI5936
aI5956
aI5978
aI5996
asg1
(g5
S'\x01'
p12
tp13
Rp14
(lp15
I14
aI17
aI48
aI70
aI93
aI121
aI128
aI155
aI165
aI179
aI200
aI216
aI241
aI259
aI269
aI284
aI327
aI354
aI376
aI395
aI415
aI433
aI460
aI462
aI477
aI498
aI513
aI526
aI544
aI558
aI569
aI584
aI604
aI640
aI690
aI699
aI724
aI735
aI744
aI751
aI773
aI782
aI795
aI819
aI838
aI857
aI890
aI915
aI955
aI991
aI1010
aI1012
aI1026
aI1054
aI1077
aI1094
aI1120
aI1151
aI1165
aI1176
aI1202
aI1213
aI1243
aI1260
aI1273
aI1281
aI1304
aI1322
aI1354
aI1364
aI1399
aI1405
aI1427
aI1461
aI1489
aI1507
aI1523
aI1547
aI1562
aI1579
aI1603
aI1651
aI1671
aI1734
aI1751
aI1768
aI1784
aI1812
aI1834
aI1863
aI1882
aI1894
aI1910
aI1941
aI1949
aI1956
aI1996
aI2047
aI2071
aI2095
aI2142
aI2165
aI2176
aI2189
aI2198
aI2241
aI2269
aI2289
aI2308
aI2315
aI2326
aI2338
aI2368
aI2413
aI2421
aI2445
aI2466
aI2476
aI2513
aI2517
aI2534
aI2545
aI2560
aI2582
aI2609
aI2632
aI2644
aI2661
aI2682
aI2701
aI2713
aI2741
aI2769
aI2804
aI2823
aI2854
aI2870
aI2878
aI2902
aI2935
aI2944
aI2961
aI2978
aI2995
aI3010
aI3052
aI3057
aI3087
aI3119
aI3150
aI3168
aI3174
aI3187
aI3198
aI3219
aI3253
aI3256
aI3285
aI3318
aI3325
aI3351
aI3367
aI3375
aI3381
aI3423
aI3442
aI3461
aI3476
aI3486
aI3503
aI3544
aI3562
aI3566
aI3587
aI3600
aI3611
aI3644
aI3664
aI3688
aI3705
aI3727
aI3734
aI3744
aI3779
aI3797
aI3801
aI3829
aI3859
aI3893
aI3909
aI3930
aI3939
aI3951
aI3974
aI3998
aI4005
aI4052
aI4070
aI4101
aI4120
aI4123
aI4172
aI4197
aI4209
aI4226
aI4248
aI4276
aI4314
aI4388
aI4392
aI4426
aI4436
aI4451
aI4471
aI4479
aI4493
aI4513
aI4534
aI4537
aI4561
aI4592
aI4606
aI4632
aI4646
aI4672
aI4690
aI4725
aI4762
aI4779
aI4810
aI4831
aI4839
aI4848
aI4872
aI4892
aI4922
aI4966
aI4980
aI4993
aI5021
aI5029
aI5056
aI5095
aI5118
aI5141
aI5155
aI5174
aI5191
aI5204
aI5219
aI5229
aI5239
aI5268
aI5284
aI5302
aI5323
aI5348
aI5366
aI5386
aI5421
aI5443
aI5472
aI5499
aI5500
aI5515
aI5570
aI5602
aI5631
aI5639
aI5660
aI5673
aI5687
aI5700
aI5738
aI5764
aI5780
aI5787
aI5803
aI5814
aI5820
aI5844
aI5851
aI5861
aI5891
aI5915
aI5928
aI5946
aI5966
asg1
(g5
S'\x02'
p16
tp17
Rp18
(lp19
I1
aI24
aI56
aI66
aI83
aI102
aI133
aI143
aI178
aI198
aI214
aI238
aI271
aI287
aI315
aI329
aI341
aI371
aI385
aI397
aI418
aI435
aI452
aI465
aI485
aI506
aI522
aI549
aI579
aI589
aI617
aI625
aI635
aI686
aI707
aI727
aI739
aI752
aI784
aI810
aI822
aI844
aI851
aI859
aI878
aI887
aI942
aI948
aI983
aI1035
aI1040
aI1052
aI1086
aI1097
aI1107
aI1122
aI1130
aI1139
aI1199
aI1214
aI1226
aI1242
aI1264
aI1275
aI1301
aI1302
aI1314
aI1356
aI1372
aI1390
aI1433
aI1470
aI1501
aI1520
aI1551
aI1560
aI1583
aI1594
aI1620
aI1646
aI1655
aI1660
aI1681
aI1690
aI1703
aI1715
aI1726
aI1764
aI1782
aI1793
aI1813
aI1837
aI1849
aI1865
aI1884
aI1893
aI1915
aI1944
aI1958
aI1977
aI2048
aI2068
aI2080
aI2101
aI2117
aI2125
aI2143
aI2154
aI2212
aI2218
aI2239
aI2250
aI2265
aI2277
aI2310
aI2327
aI2349
aI2369
aI2395
aI2409
aI2437
aI2464
aI2484
aI2501
aI2516
aI2539
aI2552
aI2555
aI2574
aI2596
aI2617
aI2625
aI2671
aI2675
aI2712
aI2718
aI2743
aI2758
aI2772
aI2797
aI2799
aI2832
aI2843
aI2861
aI2886
aI2912
aI2919
aI2951
aI2963
aI3002
aI3022
aI3030
aI3050
aI3073
aI3080
aI3106
aI3118
aI3143
aI3165
aI3173
aI3188
aI3206
aI3225
aI3227
aI3233
aI3270
aI3278
aI3302
aI3316
aI3330
aI3336
aI3352
aI3397
aI3413
aI3445
aI3457
aI3492
aI3509
aI3520
aI3549
aI3570
aI3585
aI3593
aI3624
aI3639
aI3672
aI3694
aI3707
aI3749
aI3761
aI3792
aI3834
aI3850
aI3861
aI3890
aI3900
aI3977
aI4011
aI4025
aI4032
aI4045
aI4076
aI4090
aI4115
aI4128
aI4142
aI4162
aI4178
aI4196
aI4223
aI4230
aI4257
aI4273
aI4309
aI4325
aI4332
aI4352
aI4385
aI4393
aI4427
aI4438
aI4457
aI4505
aI4515
aI4552
aI4563
aI4571
aI4580
aI4603
aI4625
aI4652
aI4687
aI4693
aI4704
aI4713
aI4746
aI4755
aI4794
aI4800
aI4824
aI4835
aI4854
aI4860
aI4879
aI4917
aI4943
aI4965
aI4968
aI4996
aI5011
aI5046
aI5058
aI5078
aI5106
aI5132
aI5135
aI5153
aI5179
aI5206
aI5227
aI5230
aI5254
aI5263
aI5275
aI5287
aI5310
aI5345
aI5363
aI5397
aI5436
aI5453
aI5470
aI5482
aI5522
aI5532
aI5551
aI5562
aI5582
aI5586
aI5611
aI5633
aI5654
aI5681
aI5693
aI5706
aI5723
aI5742
aI5755
aI5798
aI5830
aI5841
aI5849
aI5865
aI5882
aI5924
aI5935
aI5962
aI5977
aI5997
asg1
(g5
S'\x03'
p20
tp21
Rp22
(lp23
I10
aI23
aI36
aI49
aI71
aI87
aI116
aI140
aI153
aI189
aI222
aI240
aI290
aI298
aI314
aI337
aI343
aI369
aI380
aI426
aI453
aI480
aI507
aI518
aI545
aI551
aI577
aI583
aI613
aI620
aI639
aI652
aI674
aI693
aI723
aI731
aI754
aI790
aI792
aI802
aI805
aI813
aI821
aI830
aI868
aI894
aI911
aI920
aI931
aI962
aI967
aI976
aI993
aI1034
aI1063
aI1074
aI1092
aI1114
aI1115
aI1127
aI1147
aI1158
aI1160
aI1206
aI1231
aI1253
aI1283
aI1306
aI1320
aI1338
aI1352
aI1380
aI1392
aI1395
aI1409
aI1415
aI1426
aI1464
aI1479
aI1485
aI1512
aI1550
aI1564
aI1588
aI1592
aI1626
aI1666
aI1708
aI1771
aI1801
aI1814
aI1839
aI1866
aI1876
aI1887
aI1897
aI1909
aI1924
aI1928
aI1946
aI1969
aI2019
aI2032
aI2046
aI2077
aI2091
aI2119
aI2139
aI2169
aI2184
aI2200
aI2227
aI2232
aI2249
aI2258
aI2287
aI2307
aI2335
aI2337
aI2360
aI2381
aI2408
aI2435
aI2443
aI2458
aI2471
aI2477
aI2504
aI2540
aI2561
aI2590
aI2607
aI2624
aI2649
aI2681
aI2710
aI2726
aI2736
aI2751
aI2783
aI2792
aI2800
aI2825
aI2852
aI2883
aI2911
aI2926
aI2946
aI2972
aI2975
aI2999
aI3020
aI3028
aI3037
aI3064
aI3092
aI3097
aI3122
aI3142
aI3162
aI3185
aI3192
aI3217
aI3242
aI3266
aI3286
aI3319
aI3331
aI3350
aI3376
aI3391
aI3426
aI3443
aI3468
aI3470
aI3489
aI3505
aI3518
aI3531
aI3550
aI3569
aI3582
aI3602
aI3621
aI3632
aI3678
aI3697
aI3702
aI3760
aI3776
aI3790
aI3814
aI3825
aI3872
aI3894
aI3914
aI3918
aI3952
aI3976
aI4004
aI4017
aI4036
aI4061
aI4080
aI4096
aI4118
aI4130
aI4156
aI4173
aI4194
aI4217
aI4245
aI4267
aI4278
aI4322
aI4346
aI4358
aI4368
aI4382
aI4413
aI4421
aI4475
aI4499
aI4504
aI4516
aI4541
aI4585
aI4597
aI4637
aI4657
aI4684
aI4695
aI4709
aI4731
aI4741
aI4750
aI4789
aI4798
aI4820
aI4853
aI4873
aI4878
aI4902
aI4918
aI4958
aI5001
aI5017
aI5032
aI5067
aI5082
aI5085
aI5110
aI5116
aI5143
aI5163
aI5176
aI5185
aI5198
aI5220
aI5228
aI5247
aI5277
aI5311
aI5329
aI5357
aI5374
aI5392
aI5414
aI5423
aI5456
aI5462
aI5492
aI5529
aI5546
aI5565
aI5588
aI5601
aI5620
aI5641
aI5646
aI5667
aI5688
aI5699
aI5719
aI5733
aI5751
aI5778
aI5810
aI5826
aI5855
aI5881
aI5911
aI5943
aI5957
aI5965
aI5985
asg1
(g5
S'\x04'
p24
tp25
Rp26
(lp27
I15
aI16
aI41
aI55
aI68
aI72
aI85
aI120
aI122
aI157
aI164
aI183
aI224
aI249
aI258
aI292
aI307
aI313
aI335
aI347
aI361
aI384
aI393
aI424
aI446
aI467
aI481
aI504
aI527
aI543
aI553
aI575
aI598
aI612
aI646
aI666
aI684
aI711
aI720
aI750
aI764
aI775
aI791
aI799
aI840
aI874
aI903
aI936
aI958
aI996
aI1017
aI1024
aI1043
aI1069
aI1073
aI1090
aI1108
aI1137
aI1140
aI1164
aI1169
aI1198
aI1235
aI1272
aI1318
aI1332
aI1343
aI1366
aI1396
aI1413
aI1417
aI1430
aI1455
aI1478
aI1513
aI1538
aI1552
aI1589
aI1606
aI1618
aI1638
aI1672
aI1686
aI1738
aI1748
aI1763
aI1792
aI1815
aI1825
aI1844
aI1856
aI1877
aI1886
aI1905
aI1918
aI1939
aI1971
aI2009
aI2012
aI2033
aI2058
aI2079
aI2105
aI2115
aI2137
aI2161
aI2180
aI2195
aI2228
aI2244
aI2261
aI2275
aI2305
aI2318
aI2330
aI2353
aI2373
aI2390
aI2404
aI2438
aI2470
aI2485
aI2497
aI2519
aI2538
aI2568
aI2580
aI2597
aI2634
aI2651
aI2672
aI2674
aI2697
aI2722
aI2744
aI2763
aI2774
aI2812
aI2836
aI2837
aI2863
aI2882
aI2897
aI2920
aI2954
aI2965
aI2997
aI3023
aI3034
aI3041
aI3056
aI3107
aI3125
aI3138
aI3153
aI3171
aI3197
aI3216
aI3244
aI3273
aI3287
aI3297
aI3324
aI3338
aI3343
aI3362
aI3385
aI3406
aI3420
aI3431
aI3456
aI3478
aI3499
aI3507
aI3525
aI3535
aI3551
aI3588
aI3618
aI3645
aI3681
aI3713
aI3732
aI3751
aI3764
aI3800
aI3803
aI3824
aI3845
aI3873
aI3877
aI3913
aI3921
aI3935
aI3941
aI3950
aI3980
aI4007
aI4019
aI4038
aI4046
aI4079
aI4097
aI4119
aI4126
aI4158
aI4198
aI4207
aI4232
aI4246
aI4272
aI4295
aI4303
aI4315
aI4330
aI4337
aI4356
aI4369
aI4377
aI4397
aI4409
aI4414
aI4428
aI4453
aI4461
aI4482
aI4500
aI4520
aI4568
aI4590
aI4640
aI4643
aI4681
aI4699
aI4726
aI4754
aI4777
aI4791
aI4811
aI4833
aI4847
aI4852
aI4857
aI4894
aI4925
aI4940
aI4952
aI4988
aI5022
aI5044
aI5061
aI5070
aI5105
aI5121
aI5150
aI5156
aI5188
aI5199
aI5226
aI5236
aI5242
aI5261
aI5280
aI5315
aI5324
aI5330
aI5351
aI5360
aI5398
aI5400
aI5418
aI5439
aI5449
aI5463
aI5496
aI5540
aI5573
aI5585
aI5597
aI5625
aI5640
aI5657
aI5671
aI5689
aI5704
aI5720
aI5732
aI5763
aI5765
aI5828
aI5848
aI5870
aI5878
aI5909
aI5944
aI5954
aI5968
asg1
(g5
S'\x05'
p28
tp29
Rp30
(lp31
I7
aI25
aI42
aI53
aI79
aI84
aI106
aI132
aI144
aI160
aI187
aI208
aI227
aI232
aI254
aI273
aI279
aI310
aI312
aI323
aI351
aI377
aI409
aI434
aI438
aI454
aI502
aI546
aI572
aI582
aI585
aI597
aI611
aI629
aI634
aI671
aI692
aI710
aI715
aI738
aI756
aI774
aI779
aI804
aI829
aI852
aI854
aI858
aI893
aI940
aI952
aI1000
aI1028
aI1047
aI1065
aI1076
aI1095
aI1119
aI1132
aI1144
aI1154
aI1204
aI1210
aI1216
aI1221
aI1225
aI1236
aI1265
aI1289
aI1305
aI1350
aI1383
aI1385
aI1401
aI1402
aI1406
aI1440
aI1472
aI1476
aI1502
aI1506
aI1548
aI1555
aI1582
aI1607
aI1622
aI1648
aI1654
aI1677
aI1678
aI1687
aI1695
aI1714
aI1727
aI1733
aI1754
aI1783
aI1800
aI1823
aI1841
aI1852
aI1862
aI1935
aI1952
aI1960
aI1986
aI1990
aI1999
aI2018
aI2042
aI2065
aI2084
aI2085
aI2094
aI2130
aI2138
aI2166
aI2182
aI2209
aI2215
aI2216
aI2223
aI2226
aI2231
aI2260
aI2274
aI2302
aI2316
aI2325
aI2347
aI2375
aI2387
aI2388
aI2403
aI2432
aI2456
aI2474
aI2489
aI2509
aI2529
aI2547
aI2562
aI2577
aI2608
aI2620
aI2633
aI2650
aI2662
aI2678
aI2703
aI2716
aI2733
aI2756
aI2782
aI2814
aI2835
aI2847
aI2884
aI2901
aI2930
aI2952
aI2974
aI3000
aI3019
aI3051
aI3066
aI3094
aI3096
aI3126
aI3145
aI3156
aI3199
aI3218
aI3235
aI3238
aI3245
aI3272
aI3291
aI3359
aI3368
aI3386
aI3405
aI3415
aI3444
aI3452
aI3469
aI3473
aI3479
aI3487
aI3510
aI3513
aI3516
aI3517
aI3522
aI3536
aI3557
aI3574
aI3620
aI3627
aI3637
aI3667
aI3687
aI3716
aI3735
aI3738
aI3745
aI3777
aI3794
aI3802
aI3832
aI3836
aI3839
aI3864
aI3882
aI3912
aI3926
aI3932
aI3948
aI3959
aI3965
aI3986
aI3990
aI4010
aI4021
aI4055
aI4077
aI4086
aI4104
aI4124
aI4137
aI4140
aI4146
aI4170
aI4182
aI4203
aI4220
aI4229
aI4255
aI4265
aI4281
aI4305
aI4334
aI4366
aI4367
aI4374
aI4391
aI4410
aI4420
aI4442
aI4446
aI4452
aI4455
aI4472
aI4483
aI4491
aI4511
aI4536
aI4559
aI4578
aI4595
aI4623
aI4645
aI4665
aI4683
aI4694
aI4700
aI4720
aI4745
aI4764
aI4773
aI4793
aI4821
aI4828
aI4843
aI4866
aI4895
aI4898
aI4920
aI4934
aI4935
aI4937
aI4939
aI4950
aI4969
aI4978
aI4981
aI4998
aI5010
aI5048
aI5063
aI5075
aI5079
aI5101
aI5119
aI5149
aI5164
aI5181
aI5195
aI5213
aI5233
aI5248
aI5270
aI5283
aI5286
aI5296
aI5305
aI5327
aI5343
aI5355
aI5368
aI5381
aI5407
aI5438
aI5457
aI5476
aI5495
aI5516
aI5555
aI5567
aI5598
aI5630
aI5649
aI5664
aI5709
aI5724
aI5736
aI5748
aI5770
aI5773
aI5785
aI5799
aI5808
aI5831
aI5863
aI5887
aI5903
aI5913
aI5930
aI5960
aI5983
asg1
(g5
S'\x06'
p32
tp33
Rp34
(lp35
I40
aI43
aI75
aI92
aI109
aI123
aI148
aI168
aI196
aI203
aI212
aI253
aI289
aI308
aI340
aI352
aI362
aI399
aI411
aI440
aI470
aI490
aI494
aI540
aI556
aI562
aI586
aI605
aI627
aI647
aI656
aI665
aI675
aI698
aI729
aI732
aI837
aI847
aI870
aI892
aI921
aI928
aI933
aI956
aI989
aI1064
aI1093
aI1112
aI1129
aI1146
aI1152
aI1177
aI1184
aI1201
aI1211
aI1252
aI1287
aI1326
aI1345
aI1374
aI1388
aI1425
aI1443
aI1450
aI1462
aI1483
aI1496
aI1517
aI1524
aI1545
aI1556
aI1585
aI1602
aI1625
aI1635
aI1643
aI1653
aI1661
aI1689
aI1729
aI1766
aI1774
aI1785
aI1811
aI1832
aI1850
aI1860
aI1891
aI1904
aI1929
aI1953
aI1973
aI1987
aI2020
aI2026
aI2052
aI2078
aI2081
aI2099
aI2112
aI2129
aI2147
aI2171
aI2207
aI2229
aI2240
aI2248
aI2272
aI2276
aI2299
aI2320
aI2343
aI2365
aI2391
aI2418
aI2424
aI2446
aI2455
aI2481
aI2499
aI2520
aI2528
aI2570
aI2588
aI2601
aI2637
aI2667
aI2691
aI2705
aI2717
aI2752
aI2762
aI2776
aI2803
aI2821
aI2840
aI2855
aI2893
aI2910
aI2922
aI2941
aI2964
aI2982
aI2985
aI3013
aI3071
aI3083
aI3090
aI3121
aI3146
aI3170
aI3186
aI3202
aI3212
aI3231
aI3246
aI3268
aI3282
aI3311
aI3327
aI3354
aI3371
aI3384
aI3422
aI3437
aI3454
aI3481
aI3508
aI3548
aI3554
aI3572
aI3605
aI3614
aI3630
aI3648
aI3660
aI3670
aI3698
aI3706
aI3746
aI3762
aI3793
aI3811
aI3828
aI3847
aI3870
aI3880
aI3907
aI3936
aI3958
aI3972
aI4014
aI4034
aI4044
aI4075
aI4084
aI4117
aI4143
aI4174
aI4187
aI4211
aI4242
aI4286
aI4291
aI4316
aI4329
aI4340
aI4389
aI4400
aI4419
aI4433
aI4449
aI4474
aI4495
aI4525
aI4546
aI4558
aI4582
aI4612
aI4620
aI4629
aI4642
aI4682
aI4707
aI4715
aI4737
aI4739
aI4763
aI4768
aI4781
aI4816
aI4851
aI4870
aI4881
aI4897
aI4924
aI4930
aI4976
aI4984
aI5015
aI5025
aI5037
aI5074
aI5087
aI5097
aI5124
aI5144
aI5165
aI5182
aI5187
aI5201
aI5225
aI5232
aI5250
aI5260
aI5294
aI5312
aI5344
aI5354
aI5362
aI5379
aI5409
aI5415
aI5427
aI5451
aI5479
aI5481
aI5506
aI5537
aI5561
aI5576
aI5596
aI5615
aI5637
aI5658
aI5668
aI5691
aI5710
aI5728
aI5758
aI5781
aI5804
aI5869
aI5877
aI5904
aI5908
aI5932
aI5964
aI5971
aI5990
aI5999
asg1
(g5
S'\x07'
p36
tp37
Rp38
(lp39
I11
aI19
aI38
aI62
aI73
aI96
aI110
aI135
aI142
aI161
aI194
aI206
aI228
aI239
aI263
aI272
aI296
aI306
aI338
aI357
aI366
aI392
aI417
aI419
aI422
aI456
aI487
aI500
aI535
aI555
aI566
aI580
aI595
aI615
aI621
aI645
aI653
aI659
aI663
aI683
aI700
aI713
aI734
aI760
aI788
aI820
aI836
aI871
aI905
aI908
aI912
aI919
aI934
aI946
aI978
aI985
aI1003
aI1011
aI1016
aI1038
aI1048
aI1053
aI1083
aI1161
aI1185
aI1189
aI1218
aI1251
aI1321
aI1341
aI1346
aI1379
aI1411
aI1441
aI1454
aI1481
aI1500
aI1511
aI1530
aI1543
aI1557
aI1591
aI1605
aI1624
aI1633
aI1652
aI1674
aI1684
aI1709
aI1724
aI1735
aI1753
aI1786
aI1810
aI1838
aI1854
aI1872
aI1879
aI1908
aI1925
aI1937
aI1948
aI1955
aI1989
aI2007
aI2015
aI2021
aI2060
aI2063
aI2082
aI2108
aI2111
aI2135
aI2157
aI2181
aI2187
aI2210
aI2230
aI2236
aI2262
aI2285
aI2297
aI2317
aI2355
aI2363
aI2379
aI2400
aI2416
aI2423
aI2448
aI2482
aI2500
aI2518
aI2530
aI2567
aI2584
aI2593
aI2616
aI2627
aI2657
aI2677
aI2700
aI2729
aI2738
aI2786
aI2788
aI2818
aI2894
aI2909
aI2923
aI2937
aI2970
aI2990
aI3012
aI3048
aI3060
aI3109
aI3140
aI3167
aI3178
aI3203
aI3211
aI3236
aI3252
aI3274
aI3293
aI3296
aI3321
aI3349
aI3366
aI3378
aI3389
aI3410
aI3429
aI3464
aI3477
aI3491
aI3515
aI3519
aI3545
aI3555
aI3575
aI3583
aI3599
aI3612
aI3628
aI3659
aI3673
aI3720
aI3736
aI3752
aI3778
aI3787
aI3805
aI3833
aI3851
aI3883
aI3899
aI3925
aI3928
aI3931
aI3967
aI3971
aI3996
aI4016
aI4037
aI4081
aI4093
aI4105
aI4134
aI4141
aI4149
aI4161
aI4184
aI4192
aI4215
aI4235
aI4237
aI4250
aI4266
aI4282
aI4296
aI4326
aI4339
aI4351
aI4364
aI4373
aI4402
aI4405
aI4417
aI4439
aI4459
aI4492
aI4506
aI4512
aI4533
aI4543
aI4593
aI4611
aI4621
aI4633
aI4663
aI4675
aI4680
aI4696
aI4718
aI4766
aI4775
aI4790
aI4804
aI4812
aI4862
aI4884
aI4909
aI4929
aI4942
aI4955
aI4973
aI4987
aI5016
aI5033
aI5049
aI5092
aI5107
aI5123
aI5139
aI5162
aI5178
aI5203
aI5212
aI5231
aI5243
aI5269
aI5307
aI5332
aI5373
aI5388
aI5402
aI5416
aI5422
aI5458
aI5467
aI5487
aI5512
aI5536
aI5577
aI5603
aI5616
aI5651
aI5679
aI5692
aI5713
aI5725
aI5750
aI5766
aI5806
aI5812
aI5821
aI5837
aI5847
aI5873
aI5886
aI5897
aI5912
aI5933
aI5958
aI5967
aI5988
asg1
(g5
S'\x08'
p40
tp41
Rp42
(lp43
I2
aI30
aI60
aI100
aI113
aI127
aI158
aI162
aI185
aI202
aI211
aI244
aI266
aI268
aI283
aI324
aI356
aI363
aI367
aI374
aI404
aI441
aI459
aI473
aI484
aI505
aI511
aI516
aI530
aI542
aI560
aI610
aI624
aI633
aI657
aI669
aI679
aI705
aI722
aI755
aI769
aI776
aI785
aI803
aI839
aI863
aI879
aI885
aI897
aI914
aI916
aI943
aI965
aI988
aI1014
aI1030
aI1036
aI1049
aI1060
aI1082
aI1102
aI1106
aI1116
aI1142
aI1150
aI1162
aI1171
aI1183
aI1208
aI1215
aI1228
aI1246
aI1255
aI1261
aI1268
aI1279
aI1291
aI1293
aI1294
aI1303
aI1327
aI1334
aI1347
aI1363
aI1375
aI1378
aI1434
aI1471
aI1475
aI1509
aI1528
aI1541
aI1570
aI1576
aI1597
aI1631
aI1656
aI1673
aI1698
aI1701
aI1752
aI1769
aI1789
aI1806
aI1831
aI1858
aI1878
aI1903
aI1923
aI1931
aI1959
aI1984
aI1998
aI2011
aI2030
aI2036
aI2054
aI2070
aI2087
aI2097
aI2120
aI2151
aI2159
aI2175
aI2188
aI2202
aI2222
aI2235
aI2259
aI2291
aI2298
aI2322
aI2352
aI2367
aI2399
aI2419
aI2439
aI2469
aI2488
aI2508
aI2525
aI2549
aI2563
aI2591
aI2602
aI2613
aI2641
aI2648
aI2656
aI2689
aI2711
aI2727
aI2737
aI2754
aI2761
aI2775
aI2791
aI2802
aI2810
aI2834
aI2864
aI2869
aI2888
aI2896
aI2928
aI2943
aI2959
aI2983
aI2994
aI3014
aI3049
aI3058
aI3086
aI3101
aI3124
aI3133
aI3160
aI3201
aI3213
aI3248
aI3258
aI3289
aI3304
aI3313
aI3333
aI3341
aI3372
aI3387
aI3417
aI3430
aI3449
aI3495
aI3504
aI3512
aI3532
aI3556
aI3576
aI3590
aI3607
aI3649
aI3654
aI3676
aI3711
aI3759
aI3770
aI3785
aI3808
aI3823
aI3857
aI3871
aI3888
aI3898
aI3933
aI3953
aI3983
aI3989
aI4003
aI4053
aI4054
aI4073
aI4095
aI4108
aI4125
aI4145
aI4155
aI4167
aI4177
aI4188
aI4219
aI4241
aI4258
aI4268
aI4270
aI4335
aI4361
aI4363
aI4375
aI4395
aI4416
aI4432
aI4460
aI4486
aI4517
aI4574
aI4587
aI4600
aI4638
aI4650
aI4677
aI4698
aI4702
aI4717
aI4759
aI4772
aI4796
aI4806
aI4822
aI4840
aI4863
aI4877
aI4899
aI4913
aI4947
aI4961
aI4983
aI4994
aI5012
aI5042
aI5055
aI5080
aI5093
aI5128
aI5146
aI5168
aI5202
aI5214
aI5235
aI5252
aI5258
aI5306
aI5326
aI5337
aI5358
aI5369
aI5384
aI5404
aI5433
aI5440
aI5473
aI5485
aI5505
aI5514
aI5519
aI5538
aI5543
aI5553
aI5560
aI5564
aI5590
aI5612
aI5623
aI5661
aI5669
aI5694
aI5708
aI5721
aI5731
aI5760
aI5822
aI5846
aI5866
aI5876
aI5898
aI5920
aI5926
aI5950
aI5981
aI5986
asg1
(g5
S'\t'
p44
tp45
Rp46
(lp47
I28
aI59
aI64
aI77
aI98
aI108
aI138
aI150
aI163
aI181
aI209
aI234
aI248
aI262
aI276
aI282
aI303
aI317
aI322
aI353
aI379
aI407
aI420
aI458
aI466
aI471
aI491
aI533
aI559
aI565
aI616
aI623
aI641
aI662
aI673
aI709
aI728
aI733
aI746
aI761
aI781
aI801
aI812
aI826
aI853
aI873
aI884
aI904
aI941
aI951
aI998
aI1004
aI1027
aI1056
aI1070
aI1124
aI1170
aI1195
aI1212
aI1241
aI1256
aI1267
aI1284
aI1311
aI1319
aI1329
aI1335
aI1351
aI1381
aI1389
aI1466
aI1480
aI1490
aI1494
aI1521
aI1540
aI1553
aI1586
aI1593
aI1615
aI1659
aI1676
aI1692
aI1700
aI1722
aI1747
aI1762
aI1780
aI1796
aI1817
aI1824
aI1870
aI1873
aI1880
aI1888
aI1899
aI1907
aI1921
aI1940
aI1963
aI1988
aI1995
aI2010
aI2014
aI2044
aI2064
aI2098
aI2163
aI2201
aI2252
aI2273
aI2286
aI2296
aI2323
aI2334
aI2346
aI2376
aI2389
aI2415
aI2422
aI2451
aI2463
aI2487
aI2511
aI2522
aI2532
aI2548
aI2557
aI2585
aI2598
aI2619
aI2639
aI2646
aI2683
aI2696
aI2728
aI2731
aI2749
aI2778
aI2793
aI2806
aI2830
aI2850
aI2872
aI2890
aI2898
aI2933
aI2962
aI2977
aI3004
aI3007
aI3032
aI3039
aI3055
aI3074
aI3085
aI3120
aI3135
aI3166
aI3181
aI3196
aI3220
aI3241
aI3263
aI3290
aI3323
aI3346
aI3361
aI3377
aI3382
aI3427
aI3438
aI3455
aI3494
aI3529
aI3543
aI3560
aI3581
aI3594
aI3626
aI3636
aI3643
aI3663
aI3666
aI3700
aI3710
aI3728
aI3753
aI3771
aI3784
aI3806
aI3830
aI3844
aI3852
aI3863
aI3879
aI3908
aI3934
aI3956
aI3987
aI3992
aI4012
aI4023
aI4040
aI4048
aI4069
aI4094
aI4107
aI4152
aI4160
aI4201
aI4225
aI4251
aI4274
aI4292
aI4298
aI4306
aI4349
aI4386
aI4403
aI4435
aI4466
aI4489
aI4519
aI4532
aI4544
aI4554
aI4589
aI4607
aI4626
aI4655
aI4664
aI4685
aI4701
aI4723
aI4729
aI4751
aI4776
aI4792
aI4799
aI4827
aI4861
aI4886
aI4923
aI4944
aI4957
aI4972
aI4986
aI5023
aI5024
aI5045
aI5062
aI5072
aI5109
aI5131
aI5138
aI5161
aI5175
aI5183
aI5197
aI5218
aI5246
aI5266
aI5274
aI5290
aI5300
aI5346
aI5359
aI5390
aI5417
aI5434
aI5459
aI5464
aI5486
aI5523
aI5552
aI5566
aI5593
aI5606
aI5617
aI5656
aI5677
aI5701
aI5729
aI5757
aI5779
aI5795
aI5811
aI5833
aI5842
aI5859
aI5885
aI5900
aI5919
aI5937
aI5953
aI5973
asg1
(g5
S'\n'
p48
tp49
Rp50
(lp51
I4
aI18
aI27
aI44
aI65
aI80
aI99
aI105
aI137
aI154
aI171
aI192
aI205
aI236
aI255
aI260
aI291
aI336
aI355
aI365
aI368
aI386
aI394
aI403
aI410
aI428
aI432
aI451
aI461
aI478
aI495
aI519
aI547
aI554
aI563
aI599
aI618
aI628
aI631
aI672
aI680
aI712
aI725
aI736
aI767
aI777
aI794
aI816
aI842
aI849
aI865
aI882
aI891
aI961
aI970
aI981
aI992
aI1022
aI1046
aI1057
aI1078
aI1100
aI1134
aI1156
aI1179
aI1207
aI1209
aI1223
aI1245
aI1274
aI1280
aI1315
aI1328
aI1339
aI1357
aI1377
aI1384
aI1419
aI1428
aI1456
aI1498
aI1516
aI1542
aI1554
aI1587
aI1599
aI1650
aI1680
aI1693
aI1723
aI1739
aI1765
aI1797
aI1809
aI1826
aI1864
aI1885
aI1901
aI1930
aI1970
aI1976
aI1991
aI1993
aI2006
aI2028
aI2031
aI2055
aI2073
aI2102
aI2118
aI2128
aI2145
aI2153
aI2179
aI2186
aI2211
aI2224
aI2243
aI2263
aI2279
aI2294
aI2321
aI2333
aI2341
aI2366
aI2380
aI2401
aI2431
aI2450
aI2461
aI2467
aI2475
aI2506
aI2515
aI2527
aI2572
aI2589
aI2595
aI2621
aI2630
aI2659
aI2663
aI2676
aI2699
aI2742
aI2757
aI2765
aI2766
aI2779
aI2789
aI2824
aI2838
aI2851
aI2867
aI2887
aI2915
aI2931
aI2949
aI2958
aI2991
aI3009
aI3046
aI3061
aI3079
aI3099
aI3108
aI3128
aI3144
aI3158
aI3189
aI3214
aI3260
aI3276
aI3322
aI3358
aI3364
aI3393
aI3407
aI3425
aI3433
aI3465
aI3490
aI3511
aI3527
aI3533
aI3571
aI3584
aI3592
aI3625
aI3634
aI3647
aI3655
aI3683
aI3685
aI3715
aI3724
aI3733
aI3756
aI3766
aI3799
aI3804
aI3819
aI3838
aI3848
aI3876
aI3902
aI3923
aI3944
aI3955
aI3982
aI3993
aI4024
aI4043
aI4060
aI4064
aI4088
aI4113
aI4166
aI4183
aI4195
aI4224
aI4234
aI4239
aI4277
aI4300
aI4328
aI4333
aI4390
aI4430
aI4473
aI4478
aI4490
aI4510
aI4539
aI4553
aI4566
aI4579
aI4609
aI4617
aI4639
aI4658
aI4667
aI4670
aI4689
aI4703
aI4721
aI4736
aI4765
aI4797
aI4802
aI4819
aI4844
aI4855
aI4871
aI4889
aI4896
aI4912
aI4962
aI4970
aI5002
aI5004
aI5031
aI5057
aI5086
aI5108
aI5113
aI5142
aI5159
aI5184
aI5192
aI5241
aI5267
aI5298
aI5303
aI5321
aI5341
aI5378
aI5387
aI5426
aI5446
aI5465
aI5480
aI5507
aI5518
aI5547
aI5559
aI5568
aI5592
aI5614
aI5634
aI5635
aI5643
aI5665
aI5686
aI5695
aI5718
aI5739
aI5747
aI5794
aI5800
aI5824
aI5858
aI5880
aI5895
aI5906
aI5931
aI5945
aI5972
asg1
(g5
S'\x0b'
p52
tp53
Rp54
(lp55
I9
aI22
aI31
aI54
aI89
aI114
aI126
aI145
aI176
aI191
aI220
aI247
aI267
aI294
aI305
aI318
aI332
aI349
aI387
aI413
aI439
aI445
aI472
aI496
aI512
aI525
aI536
aI576
aI591
aI619
aI632
aI658
aI664
aI687
aI703
aI718
aI741
aI753
aI780
aI835
aI848
aI866
aI875
aI886
aI918
aI926
aI939
aI949
aI979
aI999
aI1005
aI1037
aI1058
aI1071
aI1105
aI1138
aI1174
aI1194
aI1227
aI1239
aI1263
aI1282
aI1292
aI1359
aI1370
aI1403
aI1473
aI1491
aI1497
aI1518
aI1527
aI1546
aI1566
aI1575
aI1611
aI1617
aI1632
aI1645
aI1664
aI1685
aI1718
aI1725
aI1755
aI1787
aI1818
aI1843
aI1867
aI1895
aI1943
aI1951
aI1966
aI1981
aI2053
aI2067
aI2100
aI2134
aI2149
aI2168
aI2193
aI2221
aI2237
aI2257
aI2283
aI2295
aI2336
aI2356
aI2362
aI2384
aI2398
aI2411
aI2436
aI2441
aI2453
aI2478
aI2510
aI2526
aI2546
aI2566
aI2578
aI2594
aI2631
aI2645
aI2666
aI2690
aI2702
aI2723
aI2734
aI2746
aI2759
aI2785
aI2815
aI2817
aI2848
aI2881
aI2903
aI2929
aI2947
aI2969
aI2987
aI3024
aI3025
aI3038
aI3059
aI3075
aI3102
aI3115
aI3148
aI3164
aI3175
aI3191
aI3240
aI3257
aI3280
aI3298
aI3305
aI3317
aI3335
aI3345
aI3394
aI3401
aI3412
aI3434
aI3462
aI3497
aI3506
aI3539
aI3577
aI3578
aI3597
aI3619
aI3677
aI3692
aI3714
aI3726
aI3747
aI3767
aI3786
aI3831
aI3854
aI3858
aI3881
aI3895
aI3916
aI3942
aI3960
aI3979
aI4028
aI4031
aI4049
aI4065
aI4100
aI4109
aI4122
aI4164
aI4204
aI4212
aI4231
aI4249
aI4271
aI4308
aI4338
aI4350
aI4359
aI4376
aI4396
aI4429
aI4454
aI4463
aI4521
aI4531
aI4548
aI4572
aI4584
aI4598
aI4624
aI4656
aI4671
aI4728
aI4735
aI4748
aI4774
aI4788
aI4814
aI4837
aI4874
aI4880
aI4911
aI4932
aI4954
aI4974
aI4992
aI5006
aI5038
aI5051
aI5073
aI5090
aI5098
aI5117
aI5134
aI5154
aI5186
aI5217
aI5256
aI5291
aI5318
aI5333
aI5350
aI5365
aI5385
aI5399
aI5412
aI5424
aI5441
aI5478
aI5490
aI5503
aI5520
aI5541
aI5583
aI5613
aI5622
aI5644
aI5674
aI5712
aI5740
aI5752
aI5767
aI5783
aI5788
aI5801
aI5807
aI5818
aI5840
aI5860
aI5888
aI5921
aI5942
aI5948
aI5984
aI5998
asg1
(g5
S'\x0c'
p56
tp57
Rp58
(lp59
I33
aI61
aI63
aI81
aI90
aI111
aI125
aI151
aI173
aI195
aI199
aI213
aI230
aI233
aI256
aI295
aI320
aI321
aI348
aI373
aI390
aI401
aI405
aI437
aI448
aI463
aI475
aI499
aI514
aI528
aI539
aI564
aI588
aI607
aI644
aI660
aI676
aI702
aI721
aI749
aI770
aI786
aI793
aI825
aI860
aI898
aI957
aI969
aI994
aI1009
aI1013
aI1021
aI1059
aI1080
aI1089
aI1113
aI1125
aI1166
aI1182
aI1192
aI1233
aI1248
aI1266
aI1285
aI1295
aI1310
aI1316
aI1333
aI1348
aI1371
aI1391
aI1394
aI1410
aI1414
aI1438
aI1444
aI1457
aI1499
aI1504
aI1529
aI1536
aI1563
aI1577
aI1601
aI1634
aI1658
aI1663
aI1716
aI1737
aI1744
aI1757
aI1778
aI1794
aI1807
aI1830
aI1847
aI1871
aI1922
aI1934
aI1947
aI1961
aI2004
aI2013
aI2022
aI2039
aI2057
aI2074
aI2109
aI2122
aI2127
aI2150
aI2156
aI2185
aI2199
aI2213
aI2271
aI2280
aI2300
aI2313
aI2354
aI2361
aI2386
aI2392
aI2414
aI2425
aI2442
aI2454
aI2483
aI2505
aI2541
aI2544
aI2569
aI2576
aI2606
aI2622
aI2642
aI2655
aI2665
aI2688
aI2709
aI2720
aI2767
aI2781
aI2798
aI2809
aI2831
aI2844
aI2845
aI2865
aI2880
aI2914
aI2924
aI2940
aI2973
aI2979
aI2993
aI3021
aI3036
aI3072
aI3084
aI3091
aI3095
aI3111
aI3116
aI3137
aI3169
aI3172
aI3195
aI3232
aI3237
aI3251
aI3261
aI3279
aI3300
aI3314
aI3326
aI3342
aI3363
aI3379
aI3395
aI3408
aI3418
aI3446
aI3458
aI3500
aI3528
aI3547
aI3604
aI3608
aI3640
aI3657
aI3675
aI3691
aI3695
aI3719
aI3730
aI3742
aI3763
aI3783
aI3810
aI3820
aI3849
aI3866
aI3892
aI3897
aI3943
aI3966
aI3975
aI4001
aI4015
aI4033
aI4058
aI4068
aI4087
aI4116
aI4150
aI4159
aI4179
aI4202
aI4213
aI4228
aI4254
aI4284
aI4294
aI4304
aI4318
aI4323
aI4341
aI4354
aI4378
aI4404
aI4437
aI4468
aI4484
aI4497
aI4518
aI4538
aI4562
aI4570
aI4591
aI4599
aI4628
aI4654
aI4669
aI4673
aI4688
aI4692
aI4714
aI4738
aI4758
aI4769
aI4784
aI4801
aI4813
aI4836
aI4869
aI4893
aI4906
aI4951
aI4967
aI4999
aI5013
aI5054
aI5068
aI5083
aI5100
aI5130
aI5133
aI5158
aI5189
aI5207
aI5223
aI5234
aI5257
aI5272
aI5281
aI5304
aI5322
aI5339
aI5375
aI5393
aI5410
aI5435
aI5445
aI5460
aI5494
aI5526
aI5545
aI5563
aI5580
aI5587
aI5609
aI5626
aI5642
aI5648
aI5682
aI5685
aI5697
aI5716
aI5730
aI5759
aI5774
aI5793
aI5802
aI5832
aI5839
aI5852
aI5874
aI5894
aI5917
aI5925
aI5955
aI5975
aI5992
asg1
(g5
S'\r'
p60
tp61
Rp62
(lp63
I5
aI21
aI26
aI52
aI76
aI86
aI115
aI141
aI147
aI177
aI197
aI221
aI246
aI274
aI281
aI304
aI311
aI334
aI350
aI370
aI389
aI398
aI412
aI421
aI457
aI476
aI508
aI531
aI538
aI570
aI590
aI594
aI638
aI689
aI704
aI742
aI759
aI811
aI817
aI832
aI856
aI901
aI932
aI945
aI968
aI980
aI995
aI1006
aI1032
aI1067
aI1085
aI1101
aI1133
aI1149
aI1153
aI1175
aI1186
aI1205
aI1229
aI1238
aI1288
aI1297
aI1308
aI1330
aI1340
aI1349
aI1373
aI1386
aI1398
aI1420
aI1449
aI1463
aI1477
aI1487
aI1510
aI1549
aI1571
aI1584
aI1608
aI1616
aI1639
aI1649
aI1679
aI1702
aI1719
aI1721
aI1732
aI1741
aI1750
aI1756
aI1773
aI1788
aI1821
aI1827
aI1845
aI1868
aI1875
aI1942
aI1957
aI1978
aI2000
aI2023
aI2038
aI2056
aI2083
aI2093
aI2114
aI2133
aI2148
aI2167
aI2173
aI2190
aI2194
aI2233
aI2251
aI2270
aI2278
aI2311
aI2328
aI2339
aI2364
aI2383
aI2402
aI2434
aI2447
aI2457
aI2491
aI2502
aI2514
aI2542
aI2565
aI2579
aI2605
aI2618
aI2635
aI2647
aI2684
aI2704
aI2714
aI2755
aI2764
aI2784
aI2794
aI2813
aI2826
aI2846
aI2853
aI2892
aI2906
aI2927
aI2945
aI2956
aI2992
aI3005
aI3053
aI3054
aI3098
aI3127
aI3149
aI3154
aI3182
aI3207
aI3226
aI3239
aI3249
aI3255
aI3292
aI3303
aI3329
aI3332
aI3348
aI3392
aI3403
aI3416
aI3432
aI3467
aI3482
aI3514
aI3524
aI3542
aI3561
aI3568
aI3598
aI3623
aI3631
aI3642
aI3656
aI3679
aI3686
aI3717
aI3725
aI3737
aI3750
aI3773
aI3781
aI3817
aI3842
aI3878
aI3910
aI3920
aI3954
aI3968
aI4013
aI4027
aI4042
aI4059
aI4078
aI4091
aI4102
aI4129
aI4139
aI4169
aI4181
aI4200
aI4227
aI4238
aI4262
aI4280
aI4302
aI4319
aI4345
aI4360
aI4371
aI4398
aI4412
aI4465
aI4476
aI4494
aI4524
aI4528
aI4560
aI4565
aI4594
aI4608
aI4618
aI4622
aI4649
aI4662
aI4676
aI4727
aI4743
aI4753
aI4786
aI4826
aI4830
aI4875
aI4876
aI4904
aI4919
aI4927
aI4948
aI4971
aI4989
aI5020
aI5035
aI5052
aI5091
aI5103
aI5114
aI5140
aI5172
aI5209
aI5215
aI5237
aI5238
aI5262
aI5278
aI5317
aI5320
aI5334
aI5370
aI5391
aI5420
aI5452
aI5469
aI5488
aI5513
aI5539
aI5557
aI5578
aI5584
aI5604
aI5627
aI5652
aI5678
aI5714
aI5735
aI5745
aI5768
aI5809
aI5834
aI5871
aI5889
aI5902
aI5910
aI5938
aI5947
aI5982
aI5989
asg1
(g5
S'\x0e'
p64
tp65
Rp66
(lp67
I6
aI37
aI50
aI82
aI94
aI112
aI130
aI146
aI174
aI190
aI204
aI210
aI225
aI252
aI264
aI293
aI300
aI328
aI359
aI388
aI402
aI414
aI427
aI455
aI469
aI486
aI510
aI515
aI521
aI532
aI571
aI593
aI601
aI636
aI651
aI678
aI695
aI757
aI787
aI800
aI823
aI843
aI872
aI883
aI896
aI910
aI923
aI959
aI974
aI1008
aI1041
aI1051
aI1079
aI1104
aI1121
aI1135
aI1145
aI1157
aI1197
aI1224
aI1244
aI1276
aI1277
aI1299
aI1307
aI1317
aI1325
aI1358
aI1365
aI1416
aI1439
aI1448
aI1469
aI1474
aI1508
aI1533
aI1561
aI1574
aI1596
aI1621
aI1637
aI1669
aI1688
aI1712
aI1713
aI1731
aI1770
aI1777
aI1799
aI1819
aI1836
aI1853
aI1912
aI1919
aI1933
aI1974
aI1982
aI1985
aI2035
aI2050
aI2061
aI2088
aI2096
aI2124
aI2126
aI2141
aI2162
aI2203
aI2217
aI2256
aI2290
aI2301
aI2324
aI2350
aI2357
aI2377
aI2394
aI2410
aI2427
aI2490
aI2503
aI2536
aI2550
aI2559
aI2573
aI2604
aI2640
aI2653
aI2670
aI2679
aI2725
aI2739
aI2773
aI2807
aI2828
aI2858
aI2895
aI2913
aI2917
aI2936
aI2968
aI2984
aI2989
aI3006
aI3040
aI3062
aI3076
aI3113
aI3132
aI3155
aI3184
aI3208
aI3224
aI3265
aI3275
aI3301
aI3307
aI3357
aI3388
aI3424
aI3435
aI3451
aI3472
aI3488
aI3502
aI3541
aI3558
aI3573
aI3589
aI3609
aI3633
aI3651
aI3665
aI3689
aI3696
aI3704
aI3748
aI3768
aI3791
aI3815
aI3827
aI3841
aI3855
aI3869
aI3875
aI3905
aI3919
aI3929
aI3945
aI3963
aI3984
aI3995
aI4006
aI4022
aI4039
aI4050
aI4071
aI4092
aI4111
aI4138
aI4176
aI4190
aI4214
aI4236
aI4247
aI4263
aI4287
aI4290
aI4317
aI4336
aI4365
aI4372
aI4399
aI4418
aI4422
aI4441
aI4444
aI4470
aI4481
aI4514
aI4530
aI4540
aI4547
aI4583
aI4619
aI4630
aI4648
aI4691
aI4706
aI4716
aI4760
aI4785
aI4808
aI4818
aI4850
aI4859
aI4885
aI4901
aI4914
aI4933
aI4941
aI4956
aI4997
aI5009
aI5030
aI5036
aI5064
aI5071
aI5089
aI5111
aI5127
aI5145
aI5166
aI5173
aI5196
aI5255
aI5279
aI5313
aI5340
aI5361
aI5382
aI5408
aI5431
aI5455
aI5468
aI5491
aI5504
aI5527
aI5534
aI5556
aI5581
aI5599
aI5621
aI5645
aI5670
aI5683
aI5705
aI5741
aI5753
aI5771
aI5784
aI5827
aI5836
aI5864
aI5884
aI5901
aI5905
aI5934
aI5951
aI5969
aI5993
asg1
(g5
S'\x0f'
p68
tp69
Rp70
(lp71
I8
aI20
aI29
aI47
aI101
aI103
aI134
aI175
aI186
aI219
aI237
aI257
aI280
aI302
aI319
aI326
aI345
aI378
aI416
aI429
aI444
aI468
aI479
aI493
aI523
aI537
aI557
aI561
aI596
aI614
aI637
aI655
aI688
aI708
aI719
aI740
aI745
aI768
aI789
aI798
aI806
aI815
aI841
aI850
aI855
aI877
aI895
aI917
aI935
aI950
aI987
aI1031
aI1062
aI1087
aI1096
aI1109
aI1123
aI1159
aI1187
aI1193
aI1219
aI1230
aI1250
aI1262
aI1270
aI1290
aI1298
aI1331
aI1337
aI1361
aI1369
aI1397
aI1423
aI1432
aI1436
aI1446
aI1460
aI1515
aI1535
aI1567
aI1590
aI1600
aI1614
aI1629
aI1641
aI1657
aI1670
aI1682
aI1697
aI1705
aI1720
aI1740
aI1746
aI1760
aI1776
aI1795
aI1804
aI1842
aI1857
aI1892
aI1896
aI1913
aI1916
aI1936
aI1954
aI1968
aI1980
aI2005
aI2016
aI2034
aI2049
aI2076
aI2089
aI2092
aI2123
aI2136
aI2160
aI2183
aI2206
aI2219
aI2238
aI2268
aI2284
aI2309
aI2329
aI2344
aI2359
aI2405
aI2440
aI2459
aI2472
aI2493
aI2495
aI2521
aI2537
aI2564
aI2581
aI2599
aI2629
aI2664
aI2686
aI2694
aI2724
aI2735
aI2740
aI2768
aI2808
aI2827
aI2862
aI2871
aI2889
aI2900
aI2934
aI2950
aI2966
aI2976
aI2988
aI3008
aI3031
aI3047
aI3063
aI3104
aI3123
aI3147
aI3161
aI3193
aI3210
aI3228
aI3267
aI3277
aI3295
aI3308
aI3320
aI3340
aI3347
aI3365
aI3374
aI3390
aI3419
aI3448
aI3466
aI3475
aI3484
aI3537
aI3552
aI3553
aI3565
aI3606
aI3622
aI3629
aI3638
aI3669
aI3690
aI3703
aI3729
aI3743
aI3780
aI3782
aI3821
aI3843
aI3853
aI3865
aI3884
aI3906
aI3922
aI3961
aI3981
aI3994
aI4041
aI4056
aI4067
aI4085
aI4114
aI4135
aI4151
aI4175
aI4185
aI4193
aI4216
aI4233
aI4253
aI4283
aI4297
aI4311
aI4343
aI4353
aI4384
aI4411
aI4425
aI4456
aI4498
aI4502
aI4526
aI4535
aI4550
aI4569
aI4575
aI4605
aI4641
aI4644
aI4661
aI4674
aI4705
aI4710
aI4744
aI4756
aI4795
aI4803
aI4825
aI4829
aI4846
aI4856
aI4864
aI4888
aI4900
aI4910
aI4926
aI4936
aI4964
aI4991
aI5018
aI5040
aI5066
aI5104
aI5115
aI5152
aI5160
aI5177
aI5190
aI5208
aI5245
aI5276
aI5301
aI5342
aI5353
aI5376
aI5380
aI5406
aI5428
aI5447
aI5477
aI5493
aI5511
aI5533
aI5550
aI5579
aI5607
aI5624
aI5653
aI5663
aI5690
aI5698
aI5744
aI5756
aI5772
aI5777
aI5790
aI5805
aI5813
aI5823
aI5854
aI5862
aI5890
aI5922
aI5929
aI5952
aI5970
aI5994
asg1
(g5
S'\x10'
p72
tp73
Rp74
(lp75
I13
aI35
aI51
aI67
aI97
aI117
aI129
aI149
aI169
aI193
aI223
aI226
aI231
aI251
aI277
aI330
aI342
aI391
aI423
aI443
aI483
aI503
aI520
aI548
aI567
aI600
aI606
aI649
aI654
aI670
aI681
aI701
aI730
aI737
aI748
aI758
aI778
aI783
aI807
aI814
aI827
aI861
aI899
aI909
aI930
aI937
aI960
aI963
aI973
aI990
aI1023
aI1042
aI1061
aI1088
aI1111
aI1117
aI1128
aI1163
aI1188
aI1191
aI1222
aI1237
aI1258
aI1269
aI1313
aI1344
aI1382
aI1393
aI1400
aI1408
aI1424
aI1435
aI1445
aI1458
aI1482
aI1495
aI1519
aI1531
aI1537
aI1559
aI1581
aI1595
aI1612
aI1665
aI1707
aI1717
aI1730
aI1742
aI1772
aI1791
aI1805
aI1840
aI1851
aI1869
aI1889
aI1906
aI1926
aI1972
aI2017
aI2024
aI2040
aI2059
aI2062
aI2107
aI2121
aI2152
aI2155
aI2178
aI2208
aI2225
aI2234
aI2246
aI2254
aI2282
aI2304
aI2314
aI2342
aI2371
aI2385
aI2417
aI2430
aI2465
aI2494
aI2498
aI2533
aI2543
aI2554
aI2586
aI2600
aI2628
aI2643
aI2658
aI2668
aI2692
aI2695
aI2730
aI2750
aI2787
aI2790
aI2829
aI2841
aI2856
aI2866
aI2879
aI2908
aI2921
aI2939
aI2957
aI2981
aI3003
aI3017
aI3033
aI3044
aI3067
aI3081
aI3088
aI3103
aI3110
aI3130
aI3136
aI3151
aI3177
aI3180
aI3204
aI3222
aI3229
aI3250
aI3264
aI3288
aI3309
aI3312
aI3337
aI3353
aI3396
aI3404
aI3409
aI3436
aI3450
aI3498
aI3538
aI3559
aI3567
aI3595
aI3615
aI3641
aI3653
aI3668
aI3712
aI3739
aI3757
aI3765
aI3788
aI3813
aI3822
aI3862
aI3885
aI3896
aI3946
aI3947
aI3978
aI3991
aI4030
aI4057
aI4066
aI4082
aI4106
aI4127
aI4144
aI4147
aI4165
aI4199
aI4208
aI4243
aI4260
aI4279
aI4293
aI4310
aI4313
aI4324
aI4342
aI4370
aI4379
aI4448
aI4467
aI4480
aI4488
aI4508
aI4542
aI4551
aI4556
aI4576
aI4602
aI4631
aI4660
aI4666
aI4679
aI4719
aI4732
aI4752
aI4782
aI4807
aI4823
aI4838
aI4882
aI4905
aI4908
aI4928
aI4946
aI4963
aI4982
aI5003
aI5014
aI5028
aI5043
aI5065
aI5076
aI5084
aI5096
aI5120
aI5148
aI5169
aI5210
aI5211
aI5240
aI5265
aI5288
aI5295
aI5314
aI5319
aI5338
aI5356
aI5377
aI5394
aI5401
aI5413
aI5432
aI5448
aI5466
aI5497
aI5508
aI5525
aI5530
aI5548
aI5575
aI5605
aI5618
aI5659
aI5675
aI5702
aI5715
aI5727
aI5749
aI5769
aI5782
aI5791
aI5816
aI5817
aI5843
aI5872
aI5879
aI5914
aI5940
aI5961
aI5974
aI5991
asg1
(g5
S'\x11'
p76
tp77
Rp78
(lp79
I12
aI39
aI46
aI69
aI118
aI131
aI159
aI170
aI184
aI215
aI229
aI245
aI261
aI278
aI309
aI316
aI333
aI346
aI372
aI375
aI431
aI450
aI474
aI501
aI541
aI552
aI574
aI581
aI603
aI648
aI661
aI685
aI706
aI716
aI747
aI763
aI797
aI828
aI862
aI876
aI888
aI906
aI925
aI947
aI966
aI975
aI997
aI1002
aI1015
aI1025
aI1066
aI1084
aI1103
aI1110
aI1118
aI1136
aI1168
aI1178
aI1181
aI1203
aI1234
aI1249
aI1271
aI1278
aI1300
aI1309
aI1323
aI1355
aI1376
aI1412
aI1422
aI1452
aI1468
aI1484
aI1522
aI1539
aI1569
aI1580
aI1609
aI1623
aI1636
aI1644
aI1675
aI1696
aI1704
aI1711
aI1759
aI1803
aI1820
aI1829
aI1848
aI1855
aI1883
aI1902
aI1920
aI1927
aI1964
aI1992
aI2001
aI2025
aI2043
aI2066
aI2086
aI2106
aI2113
aI2172
aI2205
aI2242
aI2247
aI2255
aI2292
aI2312
aI2340
aI2372
aI2382
aI2396
aI2407
aI2429
aI2492
aI2496
aI2524
aI2556
aI2587
aI2612
aI2636
aI2660
aI2673
aI2685
aI2707
aI2721
aI2732
aI2753
aI2777
aI2795
aI2816
aI2833
aI2860
aI2873
aI2885
aI2904
aI2925
aI2942
aI2955
aI2996
aI3018
aI3035
aI3070
aI3077
aI3093
aI3105
aI3117
aI3134
aI3159
aI3190
aI3221
aI3254
aI3271
aI3283
aI3315
aI3360
aI3383
aI3400
aI3414
aI3441
aI3459
aI3496
aI3526
aI3534
aI3563
aI3586
aI3603
aI3617
aI3646
aI3682
aI3684
aI3699
aI3709
aI3741
aI3772
aI3795
aI3812
aI3826
aI3840
aI3860
aI3886
aI3903
aI3917
aI3937
aI3938
aI3949
aI3969
aI3988
aI4002
aI4026
aI4062
aI4089
aI4103
aI4133
aI4148
aI4163
aI4186
aI4205
aI4210
aI4252
aI4269
aI4301
aI4320
aI4348
aI4381
aI4406
aI4431
aI4445
aI4464
aI4477
aI4496
aI4507
aI4545
aI4564
aI4581
aI4596
aI4614
aI4634
aI4651
aI4678
aI4686
aI4722
aI4733
aI4761
aI4767
aI4778
aI4834
aI4845
aI4858
aI4891
aI4903
aI4921
aI4945
aI4959
aI4975
aI5000
aI5019
aI5039
aI5053
aI5077
aI5088
aI5112
aI5129
aI5137
aI5170
aI5194
aI5221
aI5249
aI5264
aI5285
aI5289
aI5299
aI5331
aI5352
aI5364
aI5383
aI5425
aI5454
aI5475
aI5484
aI5502
aI5510
aI5521
aI5535
aI5544
aI5569
aI5589
aI5600
aI5619
aI5650
aI5672
aI5684
aI5696
aI5737
aI5754
aI5789
aI5797
aI5819
aI5850
aI5856
aI5893
aI5896
aI5923
aI5939
aI5949
aI5976
asg1
(g5
S'\x12'
p80
tp81
Rp82
(lp83
I34
aI45
aI74
aI91
aI119
aI124
aI166
aI188
aI201
aI207
aI242
aI270
aI286
aI301
aI339
aI344
aI383
aI408
aI425
aI447
aI489
aI492
aI524
aI534
aI573
aI609
aI630
aI650
aI667
aI677
aI694
aI726
aI762
aI772
aI809
aI824
aI831
aI869
aI902
aI927
aI954
aI971
aI977
aI986
aI1001
aI1020
aI1039
aI1045
aI1068
aI1081
aI1091
aI1126
aI1148
aI1167
aI1180
aI1200
aI1220
aI1232
aI1254
aI1257
aI1312
aI1324
aI1342
aI1368
aI1421
aI1451
aI1459
aI1488
aI1493
aI1505
aI1526
aI1534
aI1565
aI1573
aI1604
aI1628
aI1647
aI1668
aI1683
aI1694
aI1706
aI1710
aI1745
aI1758
aI1775
aI1790
aI1816
aI1835
aI1846
aI1861
aI1881
aI1890
aI1900
aI1914
aI1938
aI1950
aI1965
aI1983
aI1994
aI2008
aI2027
aI2051
aI2072
aI2090
aI2131
aI2140
aI2170
aI2174
aI2191
aI2196
aI2214
aI2253
aI2264
aI2288
aI2303
aI2331
aI2345
aI2374
aI2393
aI2406
aI2426
aI2460
aI2480
aI2507
aI2531
aI2553
aI2592
aI2611
aI2615
aI2626
aI2680
aI2698
aI2745
aI2771
aI2805
aI2811
aI2819
aI2842
aI2859
aI2876
aI2877
aI2905
aI2918
aI2953
aI2971
aI2980
aI2986
aI3016
aI3026
aI3042
aI3069
aI3082
aI3089
aI3112
aI3141
aI3152
aI3179
aI3194
aI3215
aI3230
aI3269
aI3281
aI3306
aI3334
aI3344
aI3369
aI3398
aI3421
aI3439
aI3460
aI3480
aI3483
aI3501
aI3523
aI3530
aI3564
aI3591
aI3613
aI3635
aI3650
aI3661
aI3680
aI3693
aI3701
aI3718
aI3723
aI3755
aI3774
aI3789
aI3816
aI3868
aI3887
aI3904
aI3924
aI3957
aI3973
aI3999
aI4008
aI4009
aI4047
aI4072
aI4099
aI4121
aI4131
aI4171
aI4189
aI4221
aI4244
aI4261
aI4288
aI4289
aI4307
aI4321
aI4344
aI4383
aI4394
aI4401
aI4423
aI4440
aI4450
aI4458
aI4487
aI4522
aI4529
aI4573
aI4577
aI4610
aI4616
aI4627
aI4653
aI4711
aI4730
aI4757
aI4771
aI4787
aI4809
aI4841
aI4867
aI4890
aI4915
aI4953
aI4977
aI4985
aI5005
aI5041
aI5060
aI5069
aI5094
aI5125
aI5151
aI5157
aI5205
aI5216
aI5251
aI5259
aI5273
aI5282
aI5293
aI5316
aI5336
aI5371
aI5389
aI5403
aI5437
aI5442
aI5471
aI5489
aI5524
aI5531
aI5554
aI5572
aI5594
aI5595
aI5632
aI5638
aI5655
aI5676
aI5711
aI5722
aI5734
aI5761
aI5786
aI5815
aI5835
aI5838
aI5853
aI5857
aI5892
aI5907
aI5941
aI5963
aI5979
aI5987
asg1
(g5
S'\x13'
p84
tp85
Rp86
(lp87
I3
aI32
aI58
aI78
aI95
aI107
aI136
aI156
aI167
aI180
aI217
aI235
aI250
aI275
aI288
aI297
aI331
aI358
aI382
aI400
aI406
aI436
aI449
aI464
aI488
aI497
aI550
aI568
aI587
aI592
aI602
aI622
aI642
aI668
aI691
aI697
aI717
aI743
aI765
aI771
aI796
aI808
aI834
aI846
aI864
aI881
aI889
aI907
aI924
aI944
aI972
aI982
aI1018
aI1033
aI1055
aI1075
aI1098
aI1131
aI1143
aI1155
aI1172
aI1190
aI1217
aI1247
aI1296
aI1336
aI1353
aI1367
aI1404
aI1418
aI1431
aI1437
aI1453
aI1465
aI1486
aI1514
aI1544
aI1568
aI1578
aI1610
aI1619
aI1627
aI1640
aI1667
aI1691
aI1743
aI1767
aI1779
aI1798
aI1822
aI1833
aI1874
aI1911
aI1932
aI1962
aI1979
aI2003
aI2041
aI2075
aI2103
aI2110
aI2144
aI2158
aI2204
aI2245
aI2267
aI2281
aI2306
aI2319
aI2332
aI2351
aI2370
aI2397
aI2420
aI2428
aI2444
aI2452
aI2473
aI2486
aI2512
aI2535
aI2551
aI2571
aI2583
aI2603
aI2614
aI2623
aI2654
aI2669
aI2693
aI2706
aI2715
aI2748
aI2780
aI2796
aI2801
aI2822
aI2839
aI2857
aI2868
aI2875
aI2907
aI2932
aI2948
aI2967
aI3001
aI3011
aI3027
aI3043
aI3065
aI3114
aI3139
aI3163
aI3176
aI3200
aI3209
aI3234
aI3259
aI3284
aI3339
aI3356
aI3370
aI3399
aI3402
aI3411
aI3447
aI3453
aI3471
aI3493
aI3546
aI3579
aI3601
aI3610
aI3658
aI3671
aI3721
aI3731
aI3758
aI3775
aI3796
aI3807
aI3835
aI3846
aI3874
aI3889
aI3901
aI3915
aI3940
aI3962
aI3970
aI4000
aI4018
aI4020
aI4029
aI4063
aI4083
aI4110
aI4132
aI4136
aI4154
aI4168
aI4180
aI4206
aI4222
aI4256
aI4259
aI4275
aI4331
aI4355
aI4387
aI4407
aI4443
aI4469
aI4503
aI4523
aI4549
aI4557
aI4567
aI4586
aI4601
aI4615
aI4635
aI4659
aI4708
aI4712
aI4734
aI4740
aI4749
aI4783
aI4805
aI4817
aI4842
aI4865
aI4883
aI4916
aI4949
aI4990
aI5007
aI5027
aI5034
aI5059
aI5081
aI5099
aI5122
aI5147
aI5171
aI5180
aI5200
aI5222
aI5244
aI5292
aI5308
aI5328
aI5347
aI5349
aI5367
aI5395
aI5405
aI5411
aI5429
aI5450
aI5474
aI5483
aI5501
aI5528
aI5542
aI5558
aI5571
aI5591
aI5608
aI5628
aI5662
aI5680
aI5703
aI5726
aI5762
aI5775
aI5792
aI5829
aI5845
aI5867
aI5875
aI5916
aI5927
aI5959
aI5980
aI5995
as.